target datalayout = "e-m:e-p270:32:32-p271:32:32-p272:64:64-i64:64-i128:128-f80:128-n8:16:32:64-S128"
target triple = "x86_64-pc-linux-gnu"

%struct.Aig_Obj_t_ = type { %union.anon, ptr, ptr, i64, i32, i32, %union.anon.0 }
%union.anon = type { ptr }
%union.anon.0 = type { ptr }
%struct.Aig_Man_t_ = type { ptr, ptr, ptr, ptr, ptr, ptr, ptr, %struct.Aig_Obj_t_, i32, i32, i32, i32, i32, i32, [7 x i32], i32, ptr, i32, ptr, i32, ptr, i32, i32, i32, ptr, i32, i32, i32, i32, i32, ptr, ptr, i32, ptr, ptr, i32, ptr, ptr, i32, i32, i32, ptr, ptr, ptr, ptr, ptr, ptr, ptr, ptr, ptr, ptr, ptr, ptr, ptr, ptr, i32, ptr, ptr, ptr, ptr, i32, i64, i64, i64, ptr, ptr }
%struct.Vec_Ptr_t_ = type { i32, i32, ptr }
%struct.Abc_Obj_t_ = type { ptr, ptr, i32, i32, %struct.Vec_Int_t_, %struct.Vec_Int_t_, %union.anon.3, %union.anon.4 }
%struct.Vec_Int_t_ = type { i32, i32, ptr }
%union.anon.3 = type { ptr }
%union.anon.4 = type { ptr }
%struct.Mfs_Man_t_ = type { ptr, ptr, ptr, ptr, i32, ptr, ptr, ptr, ptr, ptr, ptr, ptr, ptr, i32, i32, i32, i32, ptr, ptr, i32, i32, i32, ptr, ptr, ptr, ptr, ptr, ptr, ptr, i32, i32, ptr, i32, i32, i32, [128 x i32], i32, i32, i32, i32, i32, i32, i32, i32, i32, i32, i32, i32, i32, i32, double, i32, i32, i32, i32, float, float, i64, i64, i64, i64, i64, i64, i64, i64 }

; Function Attrs: nounwind uwtable
define internal i32 @Aig_IsComplement(ptr noundef %0) #0 {
  %2 = alloca ptr, align 8
  store ptr %0, ptr %2, align 8
  %3 = load ptr, ptr %2, align 8
  %4 = ptrtoint ptr %3 to i64
  %5 = and i64 %4, 1
  %6 = trunc i64 %5 to i32
  ret i32 %6
}

; Function Attrs: nounwind uwtable
define internal ptr @Aig_Regular(ptr noundef %0) #0 {
  %2 = alloca ptr, align 8
  store ptr %0, ptr %2, align 8
  %3 = load ptr, ptr %2, align 8
  %4 = ptrtoint ptr %3 to i64
  %5 = and i64 %4, -2
  %6 = inttoptr i64 %5 to ptr
  ret ptr %6
}

; Function Attrs: nounwind uwtable
define internal ptr @Aig_NotCond(ptr noundef %0, i32 noundef %1) #0 {
  %3 = alloca ptr, align 8
  %4 = alloca i32, align 4
  store ptr %0, ptr %3, align 8
  store i32 %1, ptr %4, align 4
  %5 = load ptr, ptr %3, align 8
  %6 = ptrtoint ptr %5 to i64
  %7 = load i32, ptr %4, align 4
  %8 = sext i32 %7 to i64
  %9 = xor i64 %6, %8
  %10 = inttoptr i64 %9 to ptr
  ret ptr %10
}

; Function Attrs: nounwind uwtable
define internal i32 @Aig_ObjFaninC0(ptr noundef %0) #0 {
  %2 = alloca ptr, align 8
  store ptr %0, ptr %2, align 8
  %3 = load ptr, ptr %2, align 8
  %4 = getelementptr inbounds %struct.Aig_Obj_t_, ptr %3, i32 0, i32 1
  %5 = load ptr, ptr %4, align 8
  %6 = call i32 @Aig_IsComplement(ptr noundef %5)
  ret i32 %6
}

; Function Attrs: nounwind uwtable
define internal ptr @Aig_ObjFanin0(ptr noundef %0) #0 {
  %2 = alloca ptr, align 8
  store ptr %0, ptr %2, align 8
  %3 = load ptr, ptr %2, align 8
  %4 = getelementptr inbounds %struct.Aig_Obj_t_, ptr %3, i32 0, i32 1
  %5 = load ptr, ptr %4, align 8
  %6 = call ptr @Aig_Regular(ptr noundef %5)
  ret ptr %6
}

; Function Attrs: nounwind uwtable
define internal i32 @Aig_ObjIsTravIdCurrent(ptr noundef %0, ptr noundef %1) #0 {
  %3 = alloca ptr, align 8
  %4 = alloca ptr, align 8
  store ptr %0, ptr %3, align 8
  store ptr %1, ptr %4, align 8
  %5 = load ptr, ptr %4, align 8
  %6 = getelementptr inbounds %struct.Aig_Obj_t_, ptr %5, i32 0, i32 4
  %7 = load i32, ptr %6, align 8
  %8 = load ptr, ptr %3, align 8
  %9 = getelementptr inbounds %struct.Aig_Man_t_, ptr %8, i32 0, i32 38
  %10 = load i32, ptr %9, align 8
  %11 = icmp eq i32 %7, %10
  %12 = zext i1 %11 to i32
  ret i32 %12
}

; Function Attrs: nounwind uwtable
define internal ptr @Aig_ManCo(ptr noundef %0, i32 noundef %1) #0 {
  %3 = alloca ptr, align 8
  %4 = alloca i32, align 4
  store ptr %0, ptr %3, align 8
  store i32 %1, ptr %4, align 4
  %5 = load ptr, ptr %3, align 8
  %6 = getelementptr inbounds %struct.Aig_Man_t_, ptr %5, i32 0, i32 3
  %7 = load ptr, ptr %6, align 8
  %8 = load i32, ptr %4, align 4
  %9 = call ptr @Vec_PtrEntry(ptr noundef %7, i32 noundef %8)
  ret ptr %9
}

; Function Attrs: nounwind uwtable
define internal i32 @Vec_IntEntry(ptr noundef %0, i32 noundef %1) #0 {
  %3 = alloca ptr, align 8
  %4 = alloca i32, align 4
  store ptr %0, ptr %3, align 8
  store i32 %1, ptr %4, align 4
  %5 = load ptr, ptr %3, align 8
  %6 = getelementptr inbounds %struct.Vec_Int_t_, ptr %5, i32 0, i32 2
  %7 = load ptr, ptr %6, align 8
  %8 = load i32, ptr %4, align 4
  %9 = sext i32 %8 to i64
  %10 = getelementptr inbounds i32, ptr %7, i64 %9
  %11 = load i32, ptr %10, align 4
  ret i32 %11
}

; Function Attrs: nounwind uwtable
define internal i32 @Vec_IntSize(ptr noundef %0) #0 {
  %2 = alloca ptr, align 8
  store ptr %0, ptr %2, align 8
  %3 = load ptr, ptr %2, align 8
  %4 = getelementptr inbounds %struct.Vec_Int_t_, ptr %3, i32 0, i32 1
  %5 = load i32, ptr %4, align 4
  ret i32 %5
}

; Function Attrs: nounwind uwtable
define internal ptr @Aig_ManConst1(ptr noundef %0) #0 {
  %2 = alloca ptr, align 8
  store ptr %0, ptr %2, align 8
  %3 = load ptr, ptr %2, align 8
  %4 = getelementptr inbounds %struct.Aig_Man_t_, ptr %3, i32 0, i32 6
  %5 = load ptr, ptr %4, align 8
  ret ptr %5
}

; Function Attrs: nounwind uwtable
define internal void @Aig_ObjSetTravIdCurrent(ptr noundef %0, ptr noundef %1) #0 {
  %3 = alloca ptr, align 8
  %4 = alloca ptr, align 8
  store ptr %0, ptr %3, align 8
  store ptr %1, ptr %4, align 8
  %5 = load ptr, ptr %3, align 8
  %6 = getelementptr inbounds %struct.Aig_Man_t_, ptr %5, i32 0, i32 38
  %7 = load i32, ptr %6, align 8
  %8 = load ptr, ptr %4, align 8
  %9 = getelementptr inbounds %struct.Aig_Obj_t_, ptr %8, i32 0, i32 4
  store i32 %7, ptr %9, align 8
  ret void
}

; Function Attrs: nounwind uwtable
define internal ptr @Aig_ManCi(ptr noundef %0, i32 noundef %1) #0 {
  %3 = alloca ptr, align 8
  %4 = alloca i32, align 4
  store ptr %0, ptr %3, align 8
  store i32 %1, ptr %4, align 4
  %5 = load ptr, ptr %3, align 8
  %6 = getelementptr inbounds %struct.Aig_Man_t_, ptr %5, i32 0, i32 2
  %7 = load ptr, ptr %6, align 8
  %8 = load i32, ptr %4, align 4
  %9 = call ptr @Vec_PtrEntry(ptr noundef %7, i32 noundef %8)
  ret ptr %9
}

; Function Attrs: nounwind uwtable
define internal ptr @Vec_PtrEntry(ptr noundef %0, i32 noundef %1) #0 {
  %3 = alloca ptr, align 8
  %4 = alloca i32, align 4
  store ptr %0, ptr %3, align 8
  store i32 %1, ptr %4, align 4
  %5 = load ptr, ptr %3, align 8
  %6 = getelementptr inbounds %struct.Vec_Ptr_t_, ptr %5, i32 0, i32 2
  %7 = load ptr, ptr %6, align 8
  %8 = load i32, ptr %4, align 4
  %9 = sext i32 %8 to i64
  %10 = getelementptr inbounds ptr, ptr %7, i64 %9
  %11 = load ptr, ptr %10, align 8
  ret ptr %11
}

; Function Attrs: nounwind uwtable
define internal i32 @Vec_PtrSize(ptr noundef %0) #0 {
  %2 = alloca ptr, align 8
  store ptr %0, ptr %2, align 8
  %3 = load ptr, ptr %2, align 8
  %4 = getelementptr inbounds %struct.Vec_Ptr_t_, ptr %3, i32 0, i32 1
  %5 = load i32, ptr %4, align 4
  ret i32 %5
}

; Function Attrs: nounwind uwtable
define ptr @Abc_NtkAigForConstraints(ptr noundef %0, ptr noundef %1) #0 {
  %3 = alloca ptr, align 8
  %4 = alloca ptr, align 8
  %5 = alloca ptr, align 8
  %6 = alloca ptr, align 8
  %7 = alloca ptr, align 8
  %8 = alloca ptr, align 8
  %9 = alloca ptr, align 8
  %10 = alloca ptr, align 8
  %11 = alloca ptr, align 8
  %12 = alloca ptr, align 8
  %13 = alloca i32, align 4
  %14 = alloca i32, align 4
  %15 = alloca i32, align 4
  store ptr %0, ptr %4, align 8
  store ptr %1, ptr %5, align 8
  %16 = load ptr, ptr %4, align 8
  %17 = getelementptr inbounds %struct.Mfs_Man_t_, ptr %16, i32 0, i32 2
  %18 = load ptr, ptr %17, align 8
  %19 = icmp eq ptr %18, null
  br i1 %19, label %20, label %21

20:                                               ; preds = %2
  store ptr null, ptr %3, align 8
  br label %161

21:                                               ; preds = %2
  %22 = call ptr @Aig_ManStart(i32 noundef 1000)
  store ptr %22, ptr %7, align 8
  %23 = load ptr, ptr %4, align 8
  %24 = getelementptr inbounds %struct.Mfs_Man_t_, ptr %23, i32 0, i32 2
  %25 = load ptr, ptr %24, align 8
  call void @Aig_ManIncrementTravId(ptr noundef %25)
  store i32 0, ptr %13, align 4
  br label %26

26:                                               ; preds = %59, %21
  %27 = load i32, ptr %13, align 4
  %28 = load ptr, ptr %4, align 8
  %29 = getelementptr inbounds %struct.Mfs_Man_t_, ptr %28, i32 0, i32 6
  %30 = load ptr, ptr %29, align 8
  %31 = call i32 @Vec_PtrSize(ptr noundef %30)
  %32 = icmp slt i32 %27, %31
  br i1 %32, label %33, label %39

33:                                               ; preds = %26
  %34 = load ptr, ptr %4, align 8
  %35 = getelementptr inbounds %struct.Mfs_Man_t_, ptr %34, i32 0, i32 6
  %36 = load ptr, ptr %35, align 8
  %37 = load i32, ptr %13, align 4
  %38 = call ptr @Vec_PtrEntry(ptr noundef %36, i32 noundef %37)
  store ptr %38, ptr %6, align 8
  br label %39

39:                                               ; preds = %33, %26
  %40 = phi i1 [ false, %26 ], [ true, %33 ]
  br i1 %40, label %41, label %62

41:                                               ; preds = %39
  %42 = load ptr, ptr %4, align 8
  %43 = getelementptr inbounds %struct.Mfs_Man_t_, ptr %42, i32 0, i32 2
  %44 = load ptr, ptr %43, align 8
  %45 = load ptr, ptr %6, align 8
  %46 = getelementptr inbounds %struct.Abc_Obj_t_, ptr %45, i32 0, i32 6
  %47 = load ptr, ptr %46, align 8
  %48 = ptrtoint ptr %47 to i64
  %49 = trunc i64 %48 to i32
  %50 = call ptr @Aig_ManCi(ptr noundef %44, i32 noundef %49)
  store ptr %50, ptr %8, align 8
  %51 = load ptr, ptr %4, align 8
  %52 = getelementptr inbounds %struct.Mfs_Man_t_, ptr %51, i32 0, i32 2
  %53 = load ptr, ptr %52, align 8
  %54 = load ptr, ptr %8, align 8
  call void @Aig_ObjSetTravIdCurrent(ptr noundef %53, ptr noundef %54)
  %55 = load ptr, ptr %7, align 8
  %56 = call ptr @Aig_ObjCreateCi(ptr noundef %55)
  %57 = load ptr, ptr %8, align 8
  %58 = getelementptr inbounds %struct.Aig_Obj_t_, ptr %57, i32 0, i32 6
  store ptr %56, ptr %58, align 8
  br label %59

59:                                               ; preds = %41
  %60 = load i32, ptr %13, align 4
  %61 = add nsw i32 %60, 1
  store i32 %61, ptr %13, align 4
  br label %26, !llvm.loop !16

62:                                               ; preds = %39
  %63 = load ptr, ptr %7, align 8
  %64 = call ptr @Aig_ManConst1(ptr noundef %63)
  store ptr %64, ptr %11, align 8
  store i32 0, ptr %13, align 4
  br label %65

65:                                               ; preds = %151, %62
  %66 = load i32, ptr %13, align 4
  %67 = load ptr, ptr %4, align 8
  %68 = getelementptr inbounds %struct.Mfs_Man_t_, ptr %67, i32 0, i32 6
  %69 = load ptr, ptr %68, align 8
  %70 = call i32 @Vec_PtrSize(ptr noundef %69)
  %71 = icmp slt i32 %66, %70
  br i1 %71, label %72, label %78

72:                                               ; preds = %65
  %73 = load ptr, ptr %4, align 8
  %74 = getelementptr inbounds %struct.Mfs_Man_t_, ptr %73, i32 0, i32 6
  %75 = load ptr, ptr %74, align 8
  %76 = load i32, ptr %13, align 4
  %77 = call ptr @Vec_PtrEntry(ptr noundef %75, i32 noundef %76)
  store ptr %77, ptr %6, align 8
  br label %78

78:                                               ; preds = %72, %65
  %79 = phi i1 [ false, %65 ], [ true, %72 ]
  br i1 %79, label %80, label %154

80:                                               ; preds = %78
  %81 = load ptr, ptr %4, align 8
  %82 = getelementptr inbounds %struct.Mfs_Man_t_, ptr %81, i32 0, i32 3
  %83 = load ptr, ptr %82, align 8
  %84 = load ptr, ptr %6, align 8
  %85 = getelementptr inbounds %struct.Abc_Obj_t_, ptr %84, i32 0, i32 6
  %86 = load ptr, ptr %85, align 8
  %87 = ptrtoint ptr %86 to i64
  %88 = trunc i64 %87 to i32
  %89 = call ptr @Vec_PtrEntry(ptr noundef %83, i32 noundef %88)
  store ptr %89, ptr %12, align 8
  store i32 0, ptr %14, align 4
  br label %90

90:                                               ; preds = %147, %80
  %91 = load i32, ptr %14, align 4
  %92 = load ptr, ptr %12, align 8
  %93 = call i32 @Vec_IntSize(ptr noundef %92)
  %94 = icmp slt i32 %91, %93
  br i1 %94, label %95, label %99

95:                                               ; preds = %90
  %96 = load ptr, ptr %12, align 8
  %97 = load i32, ptr %14, align 4
  %98 = call i32 @Vec_IntEntry(ptr noundef %96, i32 noundef %97)
  store i32 %98, ptr %15, align 4
  br label %99

99:                                               ; preds = %95, %90
  %100 = phi i1 [ false, %90 ], [ true, %95 ]
  br i1 %100, label %101, label %150

101:                                              ; preds = %99
  %102 = load ptr, ptr %4, align 8
  %103 = getelementptr inbounds %struct.Mfs_Man_t_, ptr %102, i32 0, i32 2
  %104 = load ptr, ptr %103, align 8
  %105 = load i32, ptr %15, align 4
  %106 = call ptr @Aig_ManCo(ptr noundef %104, i32 noundef %105)
  store ptr %106, ptr %9, align 8
  %107 = load ptr, ptr %4, align 8
  %108 = getelementptr inbounds %struct.Mfs_Man_t_, ptr %107, i32 0, i32 2
  %109 = load ptr, ptr %108, align 8
  %110 = load ptr, ptr %9, align 8
  %111 = call i32 @Aig_ObjIsTravIdCurrent(ptr noundef %109, ptr noundef %110)
  %112 = icmp ne i32 %111, 0
  br i1 %112, label %113, label %114

113:                                              ; preds = %101
  br label %147

114:                                              ; preds = %101
  %115 = load ptr, ptr %4, align 8
  %116 = getelementptr inbounds %struct.Mfs_Man_t_, ptr %115, i32 0, i32 2
  %117 = load ptr, ptr %116, align 8
  %118 = load ptr, ptr %9, align 8
  call void @Aig_ObjSetTravIdCurrent(ptr noundef %117, ptr noundef %118)
  %119 = load ptr, ptr %9, align 8
  %120 = call ptr @Aig_ObjFanin0(ptr noundef %119)
  %121 = load ptr, ptr %4, align 8
  %122 = getelementptr inbounds %struct.Mfs_Man_t_, ptr %121, i32 0, i32 2
  %123 = load ptr, ptr %122, align 8
  %124 = call ptr @Aig_ManConst1(ptr noundef %123)
  %125 = icmp eq ptr %120, %124
  br i1 %125, label %126, label %127

126:                                              ; preds = %114
  br label %147

127:                                              ; preds = %114
  %128 = load ptr, ptr %4, align 8
  %129 = getelementptr inbounds %struct.Mfs_Man_t_, ptr %128, i32 0, i32 2
  %130 = load ptr, ptr %129, align 8
  %131 = load ptr, ptr %9, align 8
  %132 = call ptr @Aig_ObjFanin0(ptr noundef %131)
  %133 = load ptr, ptr %7, align 8
  %134 = call ptr @Abc_NtkConstructCare_rec(ptr noundef %130, ptr noundef %132, ptr noundef %133)
  store ptr %134, ptr %10, align 8
  %135 = load ptr, ptr %10, align 8
  %136 = icmp eq ptr %135, null
  br i1 %136, label %137, label %138

137:                                              ; preds = %127
  br label %147

138:                                              ; preds = %127
  %139 = load ptr, ptr %10, align 8
  %140 = load ptr, ptr %9, align 8
  %141 = call i32 @Aig_ObjFaninC0(ptr noundef %140)
  %142 = call ptr @Aig_NotCond(ptr noundef %139, i32 noundef %141)
  store ptr %142, ptr %10, align 8
  %143 = load ptr, ptr %7, align 8
  %144 = load ptr, ptr %11, align 8
  %145 = load ptr, ptr %10, align 8
  %146 = call ptr @Aig_And(ptr noundef %143, ptr noundef %144, ptr noundef %145)
  store ptr %146, ptr %11, align 8
  br label %147

147:                                              ; preds = %138, %137, %126, %113
  %148 = load i32, ptr %14, align 4
  %149 = add nsw i32 %148, 1
  store i32 %149, ptr %14, align 4
  br label %90, !llvm.loop !17

150:                                              ; preds = %99
  br label %151

151:                                              ; preds = %150
  %152 = load i32, ptr %13, align 4
  %153 = add nsw i32 %152, 1
  store i32 %153, ptr %13, align 4
  br label %65, !llvm.loop !18

154:                                              ; preds = %78
  %155 = load ptr, ptr %7, align 8
  %156 = load ptr, ptr %11, align 8
  %157 = call ptr @Aig_ObjCreateCo(ptr noundef %155, ptr noundef %156)
  %158 = load ptr, ptr %7, align 8
  %159 = call i32 @Aig_ManCleanup(ptr noundef %158)
  %160 = load ptr, ptr %7, align 8
  store ptr %160, ptr %3, align 8
  br label %161

161:                                              ; preds = %154, %20
  %162 = load ptr, ptr %3, align 8
  ret ptr %162
}