; Function Attrs: nounwind uwtable
define ptr @Abc_NtkAigForConstraints(ptr noundef readonly captures(none) %0, ptr readnone captures(none) %1) local_unnamed_addr #0 {
  %3 = getelementptr inbounds nuw i8, ptr %0, i64 16
  %4 = load ptr, ptr %3, align 8
  %5 = icmp eq ptr %4, null
  br i1 %5, label %92, label %6

6:                                                ; preds = %2
  %7 = tail call ptr @Aig_ManStart(i32 noundef 1000) #3
  %8 = load ptr, ptr %3, align 8
  tail call void @Aig_ManIncrementTravId(ptr noundef %8) #3
  %9 = getelementptr inbounds nuw i8, ptr %0, i64 48
  %10 = load ptr, ptr %9, align 8
  %11 = getelementptr i8, ptr %10, i64 4
  %.val6374 = load i32, ptr %11, align 4
  %12 = icmp sgt i32 %.val6374, 0
  br i1 %12, label %.lr.ph, label %.critedge.thread

.critedge.thread:                                 ; preds = %6
  %13 = getelementptr i8, ptr %7, i64 48
  %.val6594 = load ptr, ptr %13, align 8
  br label %.critedge2

.lr.ph:                                           ; preds = %6, %.lr.ph
  %indvars.iv = phi i64 [ %indvars.iv.next, %.lr.ph ], [ 0, %6 ]
  %14 = phi ptr [ %31, %.lr.ph ], [ %10, %6 ]
  %15 = getelementptr i8, ptr %14, i64 8
  %.val60 = load ptr, ptr %15, align 8
  %16 = getelementptr inbounds nuw ptr, ptr %.val60, i64 %indvars.iv
  %17 = load ptr, ptr %16, align 8
  %18 = load ptr, ptr %3, align 8
  %19 = getelementptr inbounds nuw i8, ptr %17, i64 56
  %20 = load ptr, ptr %19, align 8
  %21 = ptrtoint ptr %20 to i64
  %22 = getelementptr i8, ptr %18, i64 16
  %.val70 = load ptr, ptr %22, align 8
  %23 = getelementptr i8, ptr %.val70, i64 8
  %.val70.val = load ptr, ptr %23, align 8
  %sext73 = shl i64 %21, 32
  %24 = ashr exact i64 %sext73, 29
  %25 = getelementptr inbounds i8, ptr %.val70.val, i64 %24
  %26 = load ptr, ptr %25, align 8
  %27 = getelementptr i8, ptr %18, i64 312
  %.val69 = load i32, ptr %27, align 8
  %28 = getelementptr inbounds nuw i8, ptr %26, i64 32
  store i32 %.val69, ptr %28, align 8
  %29 = tail call ptr @Aig_ObjCreateCi(ptr noundef %7) #3
  %30 = getelementptr inbounds nuw i8, ptr %26, i64 40
  store ptr %29, ptr %30, align 8
  %indvars.iv.next = add nuw nsw i64 %indvars.iv, 1
  %31 = load ptr, ptr %9, align 8
  %32 = getelementptr i8, ptr %31, i64 4
  %.val63 = load i32, ptr %32, align 4
  %33 = sext i32 %.val63 to i64
  %34 = icmp slt i64 %indvars.iv.next, %33
  br i1 %34, label %.lr.ph, label %.critedge, !llvm.loop !17

.critedge:                                        ; preds = %.lr.ph
  %35 = icmp sgt i32 %.val63, 0
  %36 = getelementptr i8, ptr %7, i64 48
  %.val65 = load ptr, ptr %36, align 8
  br i1 %35, label %.lr.ph83, label %.critedge2

.lr.ph83:                                         ; preds = %.critedge
  %37 = getelementptr inbounds nuw i8, ptr %0, i64 24
  br label %38

38:                                               ; preds = %.lr.ph83, %.critedge4
  %39 = phi ptr [ %31, %.lr.ph83 ], [ %86, %.critedge4 ]
  %indvars.iv89 = phi i64 [ 0, %.lr.ph83 ], [ %indvars.iv.next90, %.critedge4 ]
  %.05381 = phi ptr [ %.val65, %.lr.ph83 ], [ %.154.lcssa, %.critedge4 ]
  %40 = getelementptr i8, ptr %39, i64 8
  %.val59 = load ptr, ptr %40, align 8
  %41 = getelementptr inbounds nuw ptr, ptr %.val59, i64 %indvars.iv89
  %42 = load ptr, ptr %41, align 8
  %43 = load ptr, ptr %37, align 8
  %44 = getelementptr inbounds nuw i8, ptr %42, i64 56
  %45 = load ptr, ptr %44, align 8
  %46 = ptrtoint ptr %45 to i64
  %47 = getelementptr i8, ptr %43, i64 8
  %.val58 = load ptr, ptr %47, align 8
  %sext = shl i64 %46, 32
  %48 = ashr exact i64 %sext, 29
  %49 = getelementptr inbounds i8, ptr %.val58, i64 %48
  %50 = load ptr, ptr %49, align 8
  %51 = getelementptr i8, ptr %50, i64 4
  %.val7176 = load i32, ptr %51, align 4
  %52 = icmp sgt i32 %.val7176, 0
  br i1 %52, label %.lr.ph79, label %.critedge4

.lr.ph79:                                         ; preds = %38
  %53 = getelementptr i8, ptr %50, i64 8
  br label %54

54:                                               ; preds = %.lr.ph79, %83
  %indvars.iv86 = phi i64 [ 0, %.lr.ph79 ], [ %indvars.iv.next87, %83 ]
  %.15477 = phi ptr [ %.05381, %.lr.ph79 ], [ %.2, %83 ]
  %.val72 = load ptr, ptr %53, align 8
  %55 = getelementptr inbounds nuw i32, ptr %.val72, i64 %indvars.iv86
  %56 = load i32, ptr %55, align 4
  %57 = load ptr, ptr %3, align 8
  %58 = getelementptr i8, ptr %57, i64 24
  %.val61 = load ptr, ptr %58, align 8
  %59 = getelementptr i8, ptr %.val61, i64 8
  %.val61.val = load ptr, ptr %59, align 8
  %60 = sext i32 %56 to i64
  %61 = getelementptr inbounds ptr, ptr %.val61.val, i64 %60
  %62 = load ptr, ptr %61, align 8
  %63 = getelementptr i8, ptr %57, i64 312
  %.val66 = load i32, ptr %63, align 8
  %64 = getelementptr i8, ptr %62, i64 32
  %.val67 = load i32, ptr %64, align 8
  %.not = icmp eq i32 %.val67, %.val66
  br i1 %.not, label %83, label %65

65:                                               ; preds = %54
  store i32 %.val66, ptr %64, align 8
  %66 = getelementptr i8, ptr %62, i64 8
  %.val56 = load ptr, ptr %66, align 8
  %67 = ptrtoint ptr %.val56 to i64
  %68 = and i64 %67, -2
  %69 = inttoptr i64 %68 to ptr
  %70 = load ptr, ptr %3, align 8
  %71 = getelementptr i8, ptr %70, i64 48
  %.val64 = load ptr, ptr %71, align 8
  %72 = icmp eq ptr %.val64, %69
  br i1 %72, label %83, label %73

73:                                               ; preds = %65
  %74 = tail call ptr @Abc_NtkConstructCare_rec(ptr noundef nonnull %70, ptr noundef %69, ptr noundef %7)
  %75 = icmp eq ptr %74, null
  br i1 %75, label %83, label %76

76:                                               ; preds = %73
  %.val57 = load ptr, ptr %66, align 8
  %77 = ptrtoint ptr %.val57 to i64
  %78 = and i64 %77, 1
  %79 = ptrtoint ptr %74 to i64
  %80 = xor i64 %78, %79
  %81 = inttoptr i64 %80 to ptr
  %82 = tail call ptr @Aig_And(ptr noundef %7, ptr noundef %.15477, ptr noundef %81) #3
  br label %83

83:                                               ; preds = %73, %65, %54, %76
  %.2 = phi ptr [ %.15477, %54 ], [ %.15477, %65 ], [ %.15477, %73 ], [ %82, %76 ]
  %indvars.iv.next87 = add nuw nsw i64 %indvars.iv86, 1
  %.val71 = load i32, ptr %51, align 4
  %84 = sext i32 %.val71 to i64
  %85 = icmp slt i64 %indvars.iv.next87, %84
  br i1 %85, label %54, label %.critedge4.loopexit, !llvm.loop !18

.critedge4.loopexit:                              ; preds = %83
  %.pre = load ptr, ptr %9, align 8
  br label %.critedge4

.critedge4:                                       ; preds = %.critedge4.loopexit, %38
  %86 = phi ptr [ %39, %38 ], [ %.pre, %.critedge4.loopexit ]
  %.154.lcssa = phi ptr [ %.05381, %38 ], [ %.2, %.critedge4.loopexit ]
  %indvars.iv.next90 = add nuw nsw i64 %indvars.iv89, 1
  %87 = getelementptr i8, ptr %86, i64 4
  %.val62 = load i32, ptr %87, align 4
  %88 = sext i32 %.val62 to i64
  %89 = icmp slt i64 %indvars.iv.next90, %88
  br i1 %89, label %38, label %.critedge2, !llvm.loop !19

.critedge2:                                       ; preds = %.critedge4, %.critedge.thread, %.critedge
  %.053.lcssa = phi ptr [ %.val65, %.critedge ], [ %.val6594, %.critedge.thread ], [ %.154.lcssa, %.critedge4 ]
  %90 = tail call ptr @Aig_ObjCreateCo(ptr noundef %7, ptr noundef %.053.lcssa) #3
  %91 = tail call i32 @Aig_ManCleanup(ptr noundef %7) #3
  br label %92

92:                                               ; preds = %2, %.critedge2
  %.0 = phi ptr [ %7, %.critedge2 ], [ null, %2 ]
  ret ptr %.0
}